; ModuleID = '38/708.c'
source_filename = "38/708.c"
target datalayout = "e-m:e-p270:32:32-p271:32:32-p272:64:64-i64:64-f80:128-n8:16:32:64-S128"
target triple = "x86_64-pc-linux-gnu"

@.str = private unnamed_addr constant [3 x i8] c"%d\00", align 1
@.str.1 = private unnamed_addr constant [4 x i8] c"%lf\00", align 1
@.str.2 = private unnamed_addr constant [7 x i8] c"%.5lf\0A\00", align 1

; Function Attrs: noinline nounwind uwtable
define dso_local i32 @main() #0 {
  %1 = alloca i32, align 4
  %2 = alloca i32, align 4
  %3 = alloca i32, align 4
  %4 = alloca i32, align 4
  %5 = alloca i32, align 4
  %6 = alloca double, align 8
  %7 = alloca double, align 8
  %8 = alloca double, align 8
  %9 = alloca [100 x double], align 16
  %10 = alloca [100 x double], align 16
  store i32 0, i32* %1, align 4
  store double 0.000000e+00, double* %6, align 8
  store double 0.000000e+00, double* %7, align 8
  %11 = call i32 (i8*, ...) @__isoc99_scanf(i8* getelementptr inbounds ([3 x i8], [3 x i8]* @.str, i64 0, i64 0), i32* %3)
  store i32 0, i32* %2, align 4
  br label %12

12:                                               ; preds = %74, %0
  %13 = load i32, i32* %2, align 4
  %14 = load i32, i32* %3, align 4
  %15 = icmp slt i32 %13, %14
  br i1 %15, label %16, label %77

16:                                               ; preds = %12
  store double 0.000000e+00, double* %7, align 8
  store double 0.000000e+00, double* %6, align 8
  %17 = call i32 (i8*, ...) @__isoc99_scanf(i8* getelementptr inbounds ([3 x i8], [3 x i8]* @.str, i64 0, i64 0), i32* %4)
  store i32 0, i32* %5, align 4
  br label %18

18:                                               ; preds = %33, %16
  %19 = load i32, i32* %5, align 4
  %20 = load i32, i32* %4, align 4
  %21 = icmp slt i32 %19, %20
  br i1 %21, label %22, label %36

22:                                               ; preds = %18
  %23 = load i32, i32* %5, align 4
  %24 = sext i32 %23 to i64
  %25 = getelementptr inbounds [100 x double], [100 x double]* %10, i64 0, i64 %24
  %26 = call i32 (i8*, ...) @__isoc99_scanf(i8* getelementptr inbounds ([4 x i8], [4 x i8]* @.str.1, i64 0, i64 0), double* %25)
  %27 = load i32, i32* %5, align 4
  %28 = sext i32 %27 to i64
  %29 = getelementptr inbounds [100 x double], [100 x double]* %10, i64 0, i64 %28
  %30 = load double, double* %29, align 8
  %31 = load double, double* %7, align 8
  %32 = fadd double %31, %30
  store double %32, double* %7, align 8
  br label %33

33:                                               ; preds = %22
  %34 = load i32, i32* %5, align 4
  %35 = add nsw i32 %34, 1
  store i32 %35, i32* %5, align 4
  br label %18

36:                                               ; preds = %18
  %37 = load double, double* %7, align 8
  %38 = load i32, i32* %4, align 4
  %39 = sitofp i32 %38 to double
  %40 = fdiv double %37, %39
  store double %40, double* %8, align 8
  store i32 0, i32* %5, align 4
  br label %41

41:                                               ; preds = %61, %36
  %42 = load i32, i32* %5, align 4
  %43 = load i32, i32* %4, align 4
  %44 = icmp slt i32 %42, %43
  br i1 %44, label %45, label %64

45:                                               ; preds = %41
  %46 = load i32, i32* %5, align 4
  %47 = sext i32 %46 to i64
  %48 = getelementptr inbounds [100 x double], [100 x double]* %10, i64 0, i64 %47
  %49 = load double, double* %48, align 8
  %50 = load double, double* %8, align 8
  %51 = fsub double %49, %50
  %52 = load i32, i32* %5, align 4
  %53 = sext i32 %52 to i64
  %54 = getelementptr inbounds [100 x double], [100 x double]* %10, i64 0, i64 %53
  %55 = load double, double* %54, align 8
  %56 = load double, double* %8, align 8
  %57 = fsub double %55, %56
  %58 = fmul double %51, %57
  %59 = load double, double* %6, align 8
  %60 = fadd double %59, %58
  store double %60, double* %6, align 8
  br label %61

61:                                               ; preds = %45
  %62 = load i32, i32* %5, align 4
  %63 = add nsw i32 %62, 1
  store i32 %63, i32* %5, align 4
  br label %41

64:                                               ; preds = %41
  %65 = load double, double* %6, align 8
  %66 = fmul double 1.000000e+00, %65
  %67 = load i32, i32* %4, align 4
  %68 = sitofp i32 %67 to double
  %69 = fdiv double %66, %68
  %70 = call double @sqrt(double %69) #3
  %71 = load i32, i32* %2, align 4
  %72 = sext i32 %71 to i64
  %73 = getelementptr inbounds [100 x double], [100 x double]* %9, i64 0, i64 %72
  store double %70, double* %73, align 8
  br label %74

74:                                               ; preds = %64
  %75 = load i32, i32* %2, align 4
  %76 = add nsw i32 %75, 1
  store i32 %76, i32* %2, align 4
  br label %12

77:                                               ; preds = %12
  store i32 0, i32* %2, align 4
  br label %78

78:                                               ; preds = %88, %77
  %79 = load i32, i32* %2, align 4
  %80 = load i32, i32* %3, align 4
  %81 = icmp slt i32 %79, %80
  br i1 %81, label %82, label %91

82:                                               ; preds = %78
  %83 = load i32, i32* %2, align 4
  %84 = sext i32 %83 to i64
  %85 = getelementptr inbounds [100 x double], [100 x double]* %9, i64 0, i64 %84
  %86 = load double, double* %85, align 8
  %87 = call i32 (i8*, ...) @printf(i8* getelementptr inbounds ([7 x i8], [7 x i8]* @.str.2, i64 0, i64 0), double %86)
  br label %88

88:                                               ; preds = %82
  %89 = load i32, i32* %2, align 4
  %90 = add nsw i32 %89, 1
  store i32 %90, i32* %2, align 4
  br label %78

91:                                               ; preds = %78
  ret i32 0
}

declare dso_local i32 @__isoc99_scanf(i8*, ...) #1

; Function Attrs: nounwind
declare dso_local double @sqrt(double) #2

declare dso_local i32 @printf(i8*, ...) #1


!llvm.module.flags = !{!0}
!llvm.ident = !{!1}

!0 = !{i32 1, !"wchar_size", i32 4}
!1 = !{!"clang version 10.0.0-4ubuntu1 "}
